; ModuleID = 'source-C-CXX/56/2350.c'
source_filename = "source-C-CXX/56/2350.c"
target datalayout = "e-m:e-p270:32:32-p271:32:32-p272:64:64-i64:64-f80:128-n8:16:32:64-S128"
target triple = "x86_64-pc-linux-gnu"

@.str = private unnamed_addr constant [3 x i8] c"%d\00", align 1
@.str.1 = private unnamed_addr constant [3 x i8] c"%s\00", align 1

; Function Attrs: nofree nounwind sspstrong uwtable
define dso_local void @main() local_unnamed_addr #0 {
  %1 = alloca i32, align 4
  %2 = alloca [100 x i8], align 16
  %3 = bitcast i32* %1 to i8*
  call void @llvm.lifetime.start.p0i8(i64 4, i8* nonnull %3) #5
  %4 = getelementptr inbounds [100 x i8], [100 x i8]* %2, i64 0, i64 0
  call void @llvm.lifetime.start.p0i8(i64 100, i8* nonnull %4) #5
  %5 = call i32 (i8*, ...) @__isoc99_scanf(i8* getelementptr inbounds ([3 x i8], [3 x i8]* @.str, i64 0, i64 0), i32* nonnull %1)
  %6 = load i32, i32* %1, align 4, !tbaa !5
  %7 = icmp sgt i32 %6, 0
  br i1 %7, label %8, label %77

8:                                                ; preds = %0, %72
  %9 = call i32 (i8*, ...) @__isoc99_scanf(i8* getelementptr inbounds ([3 x i8], [3 x i8]* @.str.1, i64 0, i64 0), i8* nonnull %4)
  %10 = call i64 @strlen(i8* noundef nonnull %4) #6
  %11 = trunc i64 %10 to i32
  %12 = add i32 %11, -2
  %13 = sext i32 %12 to i64
  %14 = getelementptr inbounds [100 x i8], [100 x i8]* %2, i64 0, i64 %13
  %15 = load i8, i8* %14, align 1, !tbaa !9
  switch i8 %15, label %44 [
    i8 101, label %16
    i8 108, label %25
  ]

16:                                               ; preds = %8
  %17 = shl i64 %10, 32
  %18 = add i64 %17, -4294967296
  %19 = ashr exact i64 %18, 32
  %20 = getelementptr inbounds [100 x i8], [100 x i8]* %2, i64 0, i64 %19
  %21 = load i8, i8* %20, align 1, !tbaa !9
  %22 = icmp eq i8 %21, 114
  %23 = icmp sgt i32 %11, 2
  %24 = select i1 %22, i1 %23, i1 false
  br i1 %24, label %34, label %44

25:                                               ; preds = %8
  %26 = shl i64 %10, 32
  %27 = add i64 %26, -4294967296
  %28 = ashr exact i64 %27, 32
  %29 = getelementptr inbounds [100 x i8], [100 x i8]* %2, i64 0, i64 %28
  %30 = load i8, i8* %29, align 1, !tbaa !9
  %31 = icmp eq i8 %30, 121
  %32 = icmp sgt i32 %11, 2
  %33 = select i1 %31, i1 %32, i1 false
  br i1 %33, label %34, label %44

34:                                               ; preds = %25, %16
  %35 = zext i32 %12 to i64
  br label %36

36:                                               ; preds = %34, %36
  %37 = phi i64 [ 0, %34 ], [ %42, %36 ]
  %38 = getelementptr inbounds [100 x i8], [100 x i8]* %2, i64 0, i64 %37
  %39 = load i8, i8* %38, align 1, !tbaa !9
  %40 = sext i8 %39 to i32
  %41 = call i32 @putchar(i32 %40)
  %42 = add nuw nsw i64 %37, 1
  %43 = icmp eq i64 %42, %35
  br i1 %43, label %44, label %36, !llvm.loop !10

44:                                               ; preds = %36, %8, %16, %25
  %45 = add i32 %11, -3
  %46 = sext i32 %45 to i64
  %47 = getelementptr inbounds [100 x i8], [100 x i8]* %2, i64 0, i64 %46
  %48 = load i8, i8* %47, align 1, !tbaa !9
  %49 = icmp eq i8 %48, 105
  br i1 %49, label %50, label %72

50:                                               ; preds = %44
  %51 = load i8, i8* %14, align 1, !tbaa !9
  %52 = icmp eq i8 %51, 110
  br i1 %52, label %53, label %72

53:                                               ; preds = %50
  %54 = shl i64 %10, 32
  %55 = add i64 %54, -4294967296
  %56 = ashr exact i64 %55, 32
  %57 = getelementptr inbounds [100 x i8], [100 x i8]* %2, i64 0, i64 %56
  %58 = load i8, i8* %57, align 1, !tbaa !9
  %59 = icmp eq i8 %58, 103
  %60 = icmp sgt i32 %11, 3
  %61 = select i1 %59, i1 %60, i1 false
  br i1 %61, label %62, label %72

62:                                               ; preds = %53
  %63 = zext i32 %45 to i64
  br label %64

64:                                               ; preds = %62, %64
  %65 = phi i64 [ 0, %62 ], [ %70, %64 ]
  %66 = getelementptr inbounds [100 x i8], [100 x i8]* %2, i64 0, i64 %65
  %67 = load i8, i8* %66, align 1, !tbaa !9
  %68 = sext i8 %67 to i32
  %69 = call i32 @putchar(i32 %68)
  %70 = add nuw nsw i64 %65, 1
  %71 = icmp eq i64 %70, %63
  br i1 %71, label %72, label %64, !llvm.loop !12

72:                                               ; preds = %64, %53, %50, %44
  %73 = call i32 @putchar(i32 10)
  %74 = load i32, i32* %1, align 4, !tbaa !5
  %75 = add nsw i32 %74, -1
  store i32 %75, i32* %1, align 4, !tbaa !5
  %76 = icmp sgt i32 %74, 1
  br i1 %76, label %8, label %77, !llvm.loop !13

77:                                               ; preds = %72, %0
  call void @llvm.lifetime.end.p0i8(i64 100, i8* nonnull %4) #5
  call void @llvm.lifetime.end.p0i8(i64 4, i8* nonnull %3) #5
  ret void
}

; Function Attrs: argmemonly mustprogress nofree nosync nounwind willreturn
declare void @llvm.lifetime.start.p0i8(i64 immarg, i8* nocapture) #1

; Function Attrs: nofree nounwind
declare noundef i32 @__isoc99_scanf(i8* nocapture noundef readonly, ...) local_unnamed_addr #2

; Function Attrs: argmemonly mustprogress nofree nounwind readonly willreturn
declare i64 @strlen(i8* nocapture) local_unnamed_addr #3

; Function Attrs: argmemonly mustprogress nofree nosync nounwind willreturn
declare void @llvm.lifetime.end.p0i8(i64 immarg, i8* nocapture) #1

; Function Attrs: nofree nounwind
declare noundef i32 @putchar(i32 noundef) local_unnamed_addr #4


!llvm.module.flags = !{!0, !1, !2, !3}
!llvm.ident = !{!4}

!0 = !{i32 1, !"wchar_size", i32 4}
!1 = !{i32 7, !"PIC Level", i32 2}
!2 = !{i32 7, !"PIE Level", i32 2}
!3 = !{i32 7, !"uwtable", i32 1}
!4 = !{!"clang version 13.0.0"}
!5 = !{!6, !6, i64 0}
!6 = !{!"int", !7, i64 0}
!7 = !{!"omnipotent char", !8, i64 0}
!8 = !{!"Simple C/C++ TBAA"}
!9 = !{!7, !7, i64 0}
!10 = distinct !{!10, !11}
!11 = !{!"llvm.loop.mustprogress"}
!12 = distinct !{!12, !11}
!13 = distinct !{!13, !11}
